Certificate:
    Data:
        Version: 3 (0x2)
        Serial Number: 4663 (0x1237)
        Signature Algorithm: sha1WithRSAEncryption
        Issuer: C=US, ST=NY, L=New York, O=Bloomberg LP, OU=CTO Office, CN=Bloomberg LP CA/emailAddress=open-tech@bloomberg.net
        Validity
            Not Before: Feb 27 06:00:00 2015 GMT
            Not After : Mar  3 06:00:00 2015 GMT
        Subject: C=US, ST=NY, L=New York, O=Bloomberg LP, OU=CTO Office, CN=hacklondon_spring_2015_006/emailAddress=open-tech@bloomberg.net
        Subject Public Key Info:
            Public Key Algorithm: rsaEncryption
            RSA Public Key: (1024 bit)
                Modulus (1024 bit):
                    00:da:ee:c7:1f:14:42:c2:60:b2:40:6f:04:10:83:
                    21:bf:76:5b:6b:27:69:38:c5:92:de:b5:6c:f0:cf:
                    99:54:06:3a:70:a6:2e:41:93:26:b1:39:3e:47:4d:
                    a7:37:43:a8:8a:2a:f1:43:60:2e:0d:a5:46:6e:8d:
                    38:11:ad:18:31:60:ef:33:62:a5:e6:01:86:0d:63:
                    2c:f8:88:31:56:38:f4:10:53:ac:9e:b9:3f:c2:38:
                    d0:7a:7d:42:f1:e2:98:45:cf:eb:20:a4:9c:88:cb:
                    16:96:b3:94:06:26:1e:f0:ae:e9:e7:92:a1:81:b8:
                    2d:83:39:84:67:68:02:96:f9
                Exponent: 65537 (0x10001)
        X509v3 extensions:
            X509v3 Basic Constraints: 
                CA:FALSE
            Netscape Comment: 
                Easy-RSA Generated Certificate
            X509v3 Subject Key Identifier: 
                8D:D8:E6:35:52:17:86:E5:49:17:45:E5:22:1F:2A:DC:C1:67:98:38
            X509v3 Authority Key Identifier: 
                keyid:F3:21:76:1F:DA:B5:E7:03:FC:ED:D7:71:B8:1C:55:2D:7E:65:5F:14
                DirName:/C=US/ST=NY/L=New York/O=Bloomberg LP/OU=CTO Office/CN=Bloomberg LP CA/emailAddress=open-tech@bloomberg.net
                serial:81:F3:7A:1C:BC:C6:E8:A2

            X509v3 Extended Key Usage: 
                TLS Web Client Authentication
            X509v3 Key Usage: 
                Digital Signature
    Signature Algorithm: sha1WithRSAEncryption
        81:38:0e:5b:fd:25:fe:96:de:90:09:7b:a3:22:85:7f:af:e6:
        d1:93:ea:d4:91:73:5d:3f:23:81:3f:6d:03:d7:5f:35:5e:c1:
        43:9b:2c:23:6c:1f:77:22:e2:60:49:03:03:a7:35:18:c0:e7:
        ee:cf:e8:60:68:6b:28:22:68:6f:65:5f:62:1c:88:8b:20:53:
        3b:13:b0:a0:d4:7d:23:ba:ce:ed:c1:59:22:ca:f0:66:96:a4:
        02:6e:24:3a:1f:8c:50:a2:3d:3a:c2:ec:45:ec:47:96:a4:9b:
        26:7c:c3:09:67:fa:f8:80:49:5a:dc:62:6a:13:a4:6b:c3:76:
        42:86
-----BEGIN CERTIFICATE-----
MIIEDjCCA3egAwIBAgICEjcwDQYJKoZIhvcNAQEFBQAwgZsxCzAJBgNVBAYTAlVT
MQswCQYDVQQIEwJOWTERMA8GA1UEBxMITmV3IFlvcmsxFTATBgNVBAoTDEJsb29t
YmVyZyBMUDETMBEGA1UECxMKQ1RPIE9mZmljZTEYMBYGA1UEAxMPQmxvb21iZXJn
IExQIENBMSYwJAYJKoZIhvcNAQkBFhdvcGVuLXRlY2hAYmxvb21iZXJnLm5ldDAe
Fw0xNTAyMjcwNjAwMDBaFw0xNTAzMDMwNjAwMDBaMIGmMQswCQYDVQQGEwJVUzEL
MAkGA1UECBMCTlkxETAPBgNVBAcTCE5ldyBZb3JrMRUwEwYDVQQKEwxCbG9vbWJl
cmcgTFAxEzARBgNVBAsTCkNUTyBPZmZpY2UxIzAhBgNVBAMUGmhhY2tsb25kb25f
c3ByaW5nXzIwMTVfMDA2MSYwJAYJKoZIhvcNAQkBFhdvcGVuLXRlY2hAYmxvb21i
ZXJnLm5ldDCBnzANBgkqhkiG9w0BAQEFAAOBjQAwgYkCgYEA2u7HHxRCwmCyQG8E
EIMhv3ZbaydpOMWS3rVs8M+ZVAY6cKYuQZMmsTk+R02nN0OoiirxQ2AuDaVGbo04
Ea0YMWDvM2Kl5gGGDWMs+IgxVjj0EFOsnrk/wjjQen1C8eKYRc/rIKSciMsWlrOU
BiYe8K7p55KhgbgtgzmEZ2gClvkCAwEAAaOCAVIwggFOMAkGA1UdEwQCMAAwLQYJ
YIZIAYb4QgENBCAWHkVhc3ktUlNBIEdlbmVyYXRlZCBDZXJ0aWZpY2F0ZTAdBgNV
HQ4EFgQUjdjmNVIXhuVJF0XlIh8q3MFnmDgwgdAGA1UdIwSByDCBxYAU8yF2H9q1
5wP87ddxuBxVLX5lXxShgaGkgZ4wgZsxCzAJBgNVBAYTAlVTMQswCQYDVQQIEwJO
WTERMA8GA1UEBxMITmV3IFlvcmsxFTATBgNVBAoTDEJsb29tYmVyZyBMUDETMBEG
A1UECxMKQ1RPIE9mZmljZTEYMBYGA1UEAxMPQmxvb21iZXJnIExQIENBMSYwJAYJ
KoZIhvcNAQkBFhdvcGVuLXRlY2hAYmxvb21iZXJnLm5ldIIJAIHzehy8xuiiMBMG
A1UdJQQMMAoGCCsGAQUFBwMCMAsGA1UdDwQEAwIHgDANBgkqhkiG9w0BAQUFAAOB
gQCBOA5b/SX+lt6QCXujIoV/r+bRk+rUkXNdPyOBP20D1181XsFDmywjbB93IuJg
SQMDpzUYwOfuz+hgaGsoImhvZV9iHIiLIFM7E7Cg1H0jus7twVkiyvBmlqQCbiQ6
H4xQoj06wuxF7EeWpJsmfMMJZ/r4gEla3GJqE6Rrw3ZChg==
-----END CERTIFICATE-----
